; Function Attrs: mustprogress nofree norecurse nounwind willreturn memory(readwrite, inaccessiblemem: none) uwtable
define void @_ZN9grpc_core16ServerAuthFilter18RunApplicationCodeclEv(ptr noalias nocapture writeonly sret(%"class.grpc_core::Poll") align 8 %agg.result, ptr nocapture noundef nonnull readonly align 8 dereferenceable(8) %this) local_unnamed_addr #4 align 2 personality ptr @__gxx_personality_v0 {
entry:
  %0 = load ptr, ptr %this, align 8
  %done = getelementptr inbounds i8, ptr %0, i64 56
  %1 = load atomic i8, ptr %done acquire, align 1
  %2 = and i8 %1, 1
  %tobool.i.i.not = icmp eq i8 %2, 0
  br i1 %tobool.i.i.not, label %if.end, label %if.then

if.then:                                          ; preds = %entry
  %3 = load ptr, ptr %this, align 8
  %client_metadata = getelementptr inbounds i8, ptr %3, i64 16
  %4 = load i64, ptr %client_metadata, align 8, !noalias !8
  %cmp.i.i.i = icmp eq i64 %4, 0
  br i1 %cmp.i.i.i, label %_ZN4absl12lts_202308026StatusD2Ev.exit, label %cond.false.i

cond.false.i:                                     ; preds = %if.then
  store i64 54, ptr %client_metadata, align 8, !noalias !8
  br label %_ZN4absl12lts_202308026StatusD2Ev.exit

_ZN4absl12lts_202308026StatusD2Ev.exit:           ; preds = %if.then, %cond.false.i
  store i8 1, ptr %agg.result, align 8
  %5 = getelementptr inbounds i8, ptr %agg.result, i64 8
  store i64 %4, ptr %5, align 8
  br label %return

if.end:                                           ; preds = %entry
  store i8 0, ptr %agg.result, align 8
  br label %return

return:                                           ; preds = %if.end, %_ZN4absl12lts_202308026StatusD2Ev.exit
  ret void
}